target datalayout = "e-m:e-p270:32:32-p271:32:32-p272:64:64-i64:64-i128:128-f80:128-n8:16:32:64-S128"
target triple = "x86_64-pc-linux-gnu"

%struct.rb_data_type_struct = type { ptr, %struct.anon, ptr, ptr, i64 }
%struct.anon = type { ptr, ptr, ptr, ptr, [1 x ptr] }
%struct.rb_io_buffer = type { ptr, i64, i32, i64 }
%struct.RBasic = type { i64, i64 }
%struct.io_buffer_blocking_region_argument = type { ptr, ptr, ptr, ptr }
%struct.RFile = type { %struct.RBasic, ptr }
%struct.io_buffer_pwrite_internal_argument = type { i32, ptr, i64, i64, i64 }

@rb_io_buffer_type = internal constant %struct.rb_data_type_struct { ptr @.str.108, %struct.anon { ptr @rb_io_buffer_type_mark, ptr @rb_io_buffer_type_free, ptr @rb_io_buffer_type_size, ptr null, [1 x ptr] zeroinitializer }, ptr null, ptr null, i64 35 }, align 8
@rb_eIOBufferLockedError = hidden global i64 0, align 8
@.str.15 = private unnamed_addr constant [23 x i8] c"Buffer already locked!\00", align 1
@rb_eIOBufferInvalidatedError = hidden global i64 0, align 8
@rb_eArgError = external global i64, align 8
@.str.119 = private unnamed_addr constant [29 x i8] c"Buffer has been invalidated!\00", align 1
@.str.126 = private unnamed_addr constant [56 x i8] c"Specified offset+length is bigger than the buffer size!\00", align 1

; Function Attrs: nounwind sspstrong uwtable
define internal void @io_buffer_lock(ptr noundef %0) #0 {
  %2 = alloca ptr, align 8
  store ptr %0, ptr %2, align 8, !tbaa !11
  %3 = load ptr, ptr %2, align 8, !tbaa !11
  %4 = getelementptr inbounds nuw %struct.rb_io_buffer, ptr %3, i32 0, i32 2
  %5 = load i32, ptr %4, align 8, !tbaa !18
  %6 = and i32 %5, 32
  %7 = icmp ne i32 %6, 0
  br i1 %7, label %8, label %10

8:                                                ; preds = %1
  %9 = load i64, ptr @rb_eIOBufferLockedError, align 8, !tbaa !20
  call void (i64, ptr, ...) @rb_raise(i64 noundef %9, ptr noundef @.str.15) #26
  unreachable

10:                                               ; preds = %1
  %11 = load ptr, ptr %2, align 8, !tbaa !11
  %12 = getelementptr inbounds nuw %struct.rb_io_buffer, ptr %11, i32 0, i32 2
  %13 = load i32, ptr %12, align 8, !tbaa !18
  %14 = or i32 %13, 32
  store i32 %14, ptr %12, align 8, !tbaa !18
  ret void
}

; Function Attrs: nounwind sspstrong uwtable
define internal i64 @io_buffer_blocking_region_begin(i64 noundef %0) #0 {
  %2 = alloca i64, align 8
  %3 = alloca ptr, align 8
  store i64 %0, ptr %2, align 8, !tbaa !20
  call void @llvm.lifetime.start.p0(i64 8, ptr %3) #22
  %4 = load i64, ptr %2, align 8, !tbaa !20
  %5 = inttoptr i64 %4 to ptr
  store ptr %5, ptr %3, align 8, !tbaa !101
  %6 = load ptr, ptr %3, align 8, !tbaa !101
  %7 = getelementptr inbounds nuw %struct.io_buffer_blocking_region_argument, ptr %6, i32 0, i32 0
  %8 = load ptr, ptr %7, align 8, !tbaa !57
  %9 = load ptr, ptr %3, align 8, !tbaa !101
  %10 = getelementptr inbounds nuw %struct.io_buffer_blocking_region_argument, ptr %9, i32 0, i32 2
  %11 = load ptr, ptr %10, align 8, !tbaa !60
  %12 = load ptr, ptr %3, align 8, !tbaa !101
  %13 = getelementptr inbounds nuw %struct.io_buffer_blocking_region_argument, ptr %12, i32 0, i32 3
  %14 = load ptr, ptr %13, align 8, !tbaa !61
  %15 = call i64 @rb_io_blocking_region(ptr noundef %8, ptr noundef %11, ptr noundef %14)
  call void @llvm.lifetime.end.p0(i64 8, ptr %3) #22
  ret i64 %15
}

; Function Attrs: nounwind sspstrong uwtable
define internal i32 @io_buffer_validate(ptr noundef %0) #0 {
  %2 = alloca i32, align 4
  %3 = alloca ptr, align 8
  store ptr %0, ptr %3, align 8, !tbaa !11
  %4 = load ptr, ptr %3, align 8, !tbaa !11
  %5 = getelementptr inbounds nuw %struct.rb_io_buffer, ptr %4, i32 0, i32 3
  %6 = load i64, ptr %5, align 8, !tbaa !13
  %7 = icmp ne i64 %6, 4
  br i1 %7, label %8, label %19

8:                                                ; preds = %1
  %9 = load ptr, ptr %3, align 8, !tbaa !11
  %10 = getelementptr inbounds nuw %struct.rb_io_buffer, ptr %9, i32 0, i32 3
  %11 = load i64, ptr %10, align 8, !tbaa !13
  %12 = load ptr, ptr %3, align 8, !tbaa !11
  %13 = getelementptr inbounds nuw %struct.rb_io_buffer, ptr %12, i32 0, i32 0
  %14 = load ptr, ptr %13, align 8, !tbaa !17
  %15 = load ptr, ptr %3, align 8, !tbaa !11
  %16 = getelementptr inbounds nuw %struct.rb_io_buffer, ptr %15, i32 0, i32 1
  %17 = load i64, ptr %16, align 8, !tbaa !19
  %18 = call i32 @io_buffer_validate_slice(i64 noundef %11, ptr noundef %14, i64 noundef %17)
  store i32 %18, ptr %2, align 4
  br label %20

19:                                               ; preds = %1
  store i32 1, ptr %2, align 4
  br label %20

20:                                               ; preds = %19, %8
  %21 = load i32, ptr %2, align 4
  ret i32 %21
}

; Function Attrs: nounwind sspstrong uwtable
define internal i64 @io_buffer_blocking_region(i64 noundef %0, ptr noundef %1, ptr noundef %2, ptr noundef %3) #0 {
  %5 = alloca i64, align 8
  %6 = alloca i64, align 8
  %7 = alloca ptr, align 8
  %8 = alloca ptr, align 8
  %9 = alloca ptr, align 8
  %10 = alloca ptr, align 8
  %11 = alloca %struct.io_buffer_blocking_region_argument, align 8
  %12 = alloca i32, align 4
  store i64 %0, ptr %6, align 8, !tbaa !20
  store ptr %1, ptr %7, align 8, !tbaa !11
  store ptr %2, ptr %8, align 8, !tbaa !7
  store ptr %3, ptr %9, align 8, !tbaa !7
  %13 = load i64, ptr %6, align 8, !tbaa !20
  %14 = call i64 @rb_io_get_io(i64 noundef %13)
  store i64 %14, ptr %6, align 8, !tbaa !20
  call void @llvm.lifetime.start.p0(i64 8, ptr %10) #22
  %15 = load i64, ptr %6, align 8, !tbaa !20
  %16 = call i64 @rb_io_taint_check(i64 noundef %15)
  %17 = inttoptr i64 %16 to ptr
  %18 = getelementptr inbounds nuw %struct.RFile, ptr %17, i32 0, i32 1
  %19 = load ptr, ptr %18, align 8, !tbaa !53
  store ptr %19, ptr %10, align 8, !tbaa !56
  call void @rb_io_check_closed(ptr noundef %19)
  call void @llvm.lifetime.start.p0(i64 32, ptr %11) #22
  %20 = getelementptr inbounds nuw %struct.io_buffer_blocking_region_argument, ptr %11, i32 0, i32 0
  %21 = load ptr, ptr %10, align 8, !tbaa !56
  store ptr %21, ptr %20, align 8, !tbaa !57
  %22 = getelementptr inbounds nuw %struct.io_buffer_blocking_region_argument, ptr %11, i32 0, i32 1
  %23 = load ptr, ptr %7, align 8, !tbaa !11
  store ptr %23, ptr %22, align 8, !tbaa !59
  %24 = getelementptr inbounds nuw %struct.io_buffer_blocking_region_argument, ptr %11, i32 0, i32 2
  %25 = load ptr, ptr %8, align 8, !tbaa !7
  store ptr %25, ptr %24, align 8, !tbaa !60
  %26 = getelementptr inbounds nuw %struct.io_buffer_blocking_region_argument, ptr %11, i32 0, i32 3
  %27 = load ptr, ptr %9, align 8, !tbaa !7
  store ptr %27, ptr %26, align 8, !tbaa !61
  %28 = load ptr, ptr %7, align 8, !tbaa !11
  %29 = getelementptr inbounds nuw %struct.rb_io_buffer, ptr %28, i32 0, i32 2
  %30 = load i32, ptr %29, align 8, !tbaa !18
  %31 = and i32 %30, 32
  %32 = icmp ne i32 %31, 0
  br i1 %32, label %33, label %36

33:                                               ; preds = %4
  %34 = ptrtoint ptr %11 to i64
  %35 = call i64 @io_buffer_blocking_region_begin(i64 noundef %34)
  store i64 %35, ptr %5, align 8
  store i32 1, ptr %12, align 4
  br label %41

36:                                               ; preds = %4
  %37 = load ptr, ptr %7, align 8, !tbaa !11
  call void @io_buffer_lock(ptr noundef %37)
  %38 = ptrtoint ptr %11 to i64
  %39 = ptrtoint ptr %11 to i64
  %40 = call i64 @rb_ensure(ptr noundef @io_buffer_blocking_region_begin, i64 noundef %38, ptr noundef @io_buffer_blocking_region_ensure, i64 noundef %39)
  store i64 %40, ptr %5, align 8
  store i32 1, ptr %12, align 4
  br label %41

41:                                               ; preds = %36, %33
  call void @llvm.lifetime.end.p0(i64 32, ptr %11) #22
  call void @llvm.lifetime.end.p0(i64 8, ptr %10) #22
  %42 = load i64, ptr %5, align 8
  ret i64 %42
}

; Function Attrs: nounwind sspstrong uwtable
define internal void @io_buffer_get_bytes_for_reading(ptr noundef %0, ptr noundef %1, ptr noundef %2) #0 {
  %4 = alloca ptr, align 8
  %5 = alloca ptr, align 8
  %6 = alloca ptr, align 8
  store ptr %0, ptr %4, align 8, !tbaa !11
  store ptr %1, ptr %5, align 8, !tbaa !7
  store ptr %2, ptr %6, align 8, !tbaa !33
  %7 = load ptr, ptr %4, align 8, !tbaa !11
  %8 = call i32 @io_buffer_validate(ptr noundef %7)
  %9 = icmp ne i32 %8, 0
  br i1 %9, label %12, label %10

10:                                               ; preds = %3
  %11 = load i64, ptr @rb_eIOBufferInvalidatedError, align 8, !tbaa !20
  call void (i64, ptr, ...) @rb_raise(i64 noundef %11, ptr noundef @.str.119) #26
  unreachable

12:                                               ; preds = %3
  %13 = load ptr, ptr %4, align 8, !tbaa !11
  %14 = getelementptr inbounds nuw %struct.rb_io_buffer, ptr %13, i32 0, i32 0
  %15 = load ptr, ptr %14, align 8, !tbaa !17
  %16 = icmp ne ptr %15, null
  br i1 %16, label %17, label %26

17:                                               ; preds = %12
  %18 = load ptr, ptr %4, align 8, !tbaa !11
  %19 = getelementptr inbounds nuw %struct.rb_io_buffer, ptr %18, i32 0, i32 0
  %20 = load ptr, ptr %19, align 8, !tbaa !17
  %21 = load ptr, ptr %5, align 8, !tbaa !7
  store ptr %20, ptr %21, align 8, !tbaa !7
  %22 = load ptr, ptr %4, align 8, !tbaa !11
  %23 = getelementptr inbounds nuw %struct.rb_io_buffer, ptr %22, i32 0, i32 1
  %24 = load i64, ptr %23, align 8, !tbaa !19
  %25 = load ptr, ptr %6, align 8, !tbaa !33
  store i64 %24, ptr %25, align 8, !tbaa !20
  br label %29

26:                                               ; preds = %12
  %27 = load ptr, ptr %5, align 8, !tbaa !7
  store ptr null, ptr %27, align 8, !tbaa !7
  %28 = load ptr, ptr %6, align 8, !tbaa !33
  store i64 0, ptr %28, align 8, !tbaa !20
  br label %29

29:                                               ; preds = %26, %17
  ret void
}

; Function Attrs: inlinehint nounwind sspstrong uwtable
define internal void @io_buffer_validate_range(ptr noundef %0, i64 noundef %1, i64 noundef %2) #3 {
  %4 = alloca ptr, align 8
  %5 = alloca i64, align 8
  %6 = alloca i64, align 8
  store ptr %0, ptr %4, align 8, !tbaa !11
  store i64 %1, ptr %5, align 8, !tbaa !20
  store i64 %2, ptr %6, align 8, !tbaa !20
  %7 = load i64, ptr %5, align 8, !tbaa !20
  %8 = load i64, ptr %6, align 8, !tbaa !20
  %9 = add i64 %7, %8
  %10 = load ptr, ptr %4, align 8, !tbaa !11
  %11 = getelementptr inbounds nuw %struct.rb_io_buffer, ptr %10, i32 0, i32 1
  %12 = load i64, ptr %11, align 8, !tbaa !19
  %13 = icmp ugt i64 %9, %12
  br i1 %13, label %14, label %16

14:                                               ; preds = %3
  %15 = load i64, ptr @rb_eArgError, align 8, !tbaa !20
  call void (i64, ptr, ...) @rb_raise(i64 noundef %15, ptr noundef @.str.126) #26
  unreachable

16:                                               ; preds = %3
  ret void
}

; Function Attrs: inlinehint nounwind sspstrong willreturn memory(none) uwtable
define internal zeroext i1 @RB_UNDEF_P(i64 noundef %0) #11 {
  %2 = alloca i64, align 8
  store i64 %0, ptr %2, align 8, !tbaa !20
  %3 = load i64, ptr %2, align 8, !tbaa !20
  %4 = icmp eq i64 %3, 36
  ret i1 %4
}

; Function Attrs: nounwind sspstrong uwtable
define dso_local i64 @rb_io_buffer_pwrite(i64 noundef %0, i64 noundef %1, i64 noundef %2, i64 noundef %3, i64 noundef %4) #0 {
  %6 = alloca i64, align 8
  %7 = alloca i64, align 8
  %8 = alloca i64, align 8
  %9 = alloca i64, align 8
  %10 = alloca i64, align 8
  %11 = alloca i64, align 8
  %12 = alloca i64, align 8
  %13 = alloca i64, align 8
  %14 = alloca i32, align 4
  %15 = alloca ptr, align 8
  %16 = alloca i32, align 4
  %17 = alloca ptr, align 8
  %18 = alloca i64, align 8
  %19 = alloca %struct.io_buffer_pwrite_internal_argument, align 8
  store i64 %0, ptr %7, align 8, !tbaa !20
  store i64 %1, ptr %8, align 8, !tbaa !20
  store i64 %2, ptr %9, align 8, !tbaa !20
  store i64 %3, ptr %10, align 8, !tbaa !20
  store i64 %4, ptr %11, align 8, !tbaa !20
  call void @llvm.lifetime.start.p0(i64 8, ptr %12) #22
  %20 = call i64 @rb_fiber_scheduler_current()
  store i64 %20, ptr %12, align 8, !tbaa !20
  %21 = load i64, ptr %12, align 8, !tbaa !20
  %22 = icmp ne i64 %21, 4
  br i1 %22, label %23, label %39

23:                                               ; preds = %5
  call void @llvm.lifetime.start.p0(i64 8, ptr %13) #22
  %24 = load i64, ptr %12, align 8, !tbaa !20
  %25 = load i64, ptr %8, align 8, !tbaa !20
  %26 = load i64, ptr %9, align 8, !tbaa !20
  %27 = load i64, ptr %7, align 8, !tbaa !20
  %28 = load i64, ptr %10, align 8, !tbaa !20
  %29 = load i64, ptr %11, align 8, !tbaa !20
  %30 = call i64 @rb_fiber_scheduler_io_pwrite(i64 noundef %24, i64 noundef %25, i64 noundef %26, i64 noundef %27, i64 noundef %28, i64 noundef %29)
  store i64 %30, ptr %13, align 8, !tbaa !20
  %31 = load i64, ptr %13, align 8, !tbaa !20
  %32 = call zeroext i1 @RB_UNDEF_P(i64 noundef %31) #24
  br i1 %32, label %35, label %33

33:                                               ; preds = %23
  %34 = load i64, ptr %13, align 8, !tbaa !20
  store i64 %34, ptr %6, align 8
  store i32 1, ptr %14, align 4
  br label %36

35:                                               ; preds = %23
  store i32 0, ptr %14, align 4
  br label %36

36:                                               ; preds = %35, %33
  call void @llvm.lifetime.end.p0(i64 8, ptr %13) #22
  %37 = load i32, ptr %14, align 4
  switch i32 %37, label %68 [
    i32 0, label %38
  ]

38:                                               ; preds = %36
  br label %39

39:                                               ; preds = %38, %5
  call void @llvm.lifetime.start.p0(i64 8, ptr %15) #22
  store ptr null, ptr %15, align 8, !tbaa !11
  %40 = load i64, ptr %7, align 8, !tbaa !20
  %41 = call ptr @rb_check_typeddata(i64 noundef %40, ptr noundef @rb_io_buffer_type)
  store ptr %41, ptr %15, align 8, !tbaa !11
  %42 = load ptr, ptr %15, align 8, !tbaa !11
  %43 = load i64, ptr %11, align 8, !tbaa !20
  %44 = load i64, ptr %10, align 8, !tbaa !20
  call void @io_buffer_validate_range(ptr noundef %42, i64 noundef %43, i64 noundef %44)
  call void @llvm.lifetime.start.p0(i64 4, ptr %16) #22
  %45 = load i64, ptr %8, align 8, !tbaa !20
  %46 = call i32 @rb_io_descriptor(i64 noundef %45)
  store i32 %46, ptr %16, align 4, !tbaa !32
  call void @llvm.lifetime.start.p0(i64 8, ptr %17) #22
  call void @llvm.lifetime.start.p0(i64 8, ptr %18) #22
  %47 = load ptr, ptr %15, align 8, !tbaa !11
  call void @io_buffer_get_bytes_for_reading(ptr noundef %47, ptr noundef %17, ptr noundef %18)
  %48 = load ptr, ptr %17, align 8, !tbaa !7
  %49 = load i64, ptr %11, align 8, !tbaa !20
  %50 = getelementptr i8, ptr %48, i64 %49
  store ptr %50, ptr %17, align 8, !tbaa !7
  %51 = load i64, ptr %18, align 8, !tbaa !20
  %52 = load i64, ptr %11, align 8, !tbaa !20
  %53 = sub i64 %51, %52
  store i64 %53, ptr %18, align 8, !tbaa !20
  call void @llvm.lifetime.start.p0(i64 40, ptr %19) #22
  %54 = getelementptr inbounds nuw %struct.io_buffer_pwrite_internal_argument, ptr %19, i32 0, i32 0
  %55 = load i32, ptr %16, align 4, !tbaa !32
  store i32 %55, ptr %54, align 8, !tbaa !79
  %56 = getelementptr i8, ptr %19, i64 4
  call void @llvm.memset.p0.i64(ptr align 4 %56, i8 0, i64 4, i1 false)
  %57 = getelementptr inbounds nuw %struct.io_buffer_pwrite_internal_argument, ptr %19, i32 0, i32 1
  %58 = load ptr, ptr %17, align 8, !tbaa !7
  store ptr %58, ptr %57, align 8, !tbaa !81
  %59 = getelementptr inbounds nuw %struct.io_buffer_pwrite_internal_argument, ptr %19, i32 0, i32 2
  %60 = load i64, ptr %18, align 8, !tbaa !20
  store i64 %60, ptr %59, align 8, !tbaa !82
  %61 = getelementptr inbounds nuw %struct.io_buffer_pwrite_internal_argument, ptr %19, i32 0, i32 3
  %62 = load i64, ptr %10, align 8, !tbaa !20
  store i64 %62, ptr %61, align 8, !tbaa !83
  %63 = getelementptr inbounds nuw %struct.io_buffer_pwrite_internal_argument, ptr %19, i32 0, i32 4
  %64 = load i64, ptr %9, align 8, !tbaa !20
  store i64 %64, ptr %63, align 8, !tbaa !84
  %65 = load i64, ptr %8, align 8, !tbaa !20
  %66 = load ptr, ptr %15, align 8, !tbaa !11
  %67 = call i64 @io_buffer_blocking_region(i64 noundef %65, ptr noundef %66, ptr noundef @io_buffer_pwrite_internal, ptr noundef %19)
  store i64 %67, ptr %6, align 8
  store i32 1, ptr %14, align 4
  call void @llvm.lifetime.end.p0(i64 40, ptr %19) #22
  call void @llvm.lifetime.end.p0(i64 8, ptr %18) #22
  call void @llvm.lifetime.end.p0(i64 8, ptr %17) #22
  call void @llvm.lifetime.end.p0(i64 4, ptr %16) #22
  call void @llvm.lifetime.end.p0(i64 8, ptr %15) #22
  br label %68

68:                                               ; preds = %39, %36
  call void @llvm.lifetime.end.p0(i64 8, ptr %12) #22
  %69 = load i64, ptr %6, align 8
  ret i64 %69
}