; Function Attrs: nounwind sspstrong uwtable
define dso_local i64 @rb_io_buffer_pwrite(i64 noundef %0, i64 noundef %1, i64 noundef %2, i64 noundef %3, i64 noundef %4) local_unnamed_addr #0 {
  %6 = alloca %struct.io_buffer_blocking_region_argument, align 8
  %7 = alloca %struct.io_buffer_pwrite_internal_argument, align 8
  %8 = tail call i64 @rb_fiber_scheduler_current() #25
  %.not = icmp eq i64 %8, 4
  br i1 %.not, label %12, label %9

9:                                                ; preds = %5
  %10 = tail call i64 @rb_fiber_scheduler_io_pwrite(i64 noundef %8, i64 noundef %1, i64 noundef %2, i64 noundef %0, i64 noundef %3, i64 noundef %4) #25
  %11 = icmp eq i64 %10, 36
  br i1 %11, label %12, label %53

12:                                               ; preds = %9, %5
  %13 = tail call ptr @rb_check_typeddata(i64 noundef %0, ptr noundef nonnull @rb_io_buffer_type) #25
  %14 = getelementptr i8, ptr %13, i64 8
  %.val = load i64, ptr %14, align 8, !tbaa !16
  %15 = add i64 %4, %3
  %16 = icmp ugt i64 %15, %.val
  br i1 %16, label %17, label %io_buffer_validate_range.exit

17:                                               ; preds = %12
  %18 = load i64, ptr @rb_eArgError, align 8, !tbaa !22
  tail call void (i64, ptr, ...) @rb_raise(i64 noundef %18, ptr noundef nonnull @.str.126) #26
  unreachable

io_buffer_validate_range.exit:                    ; preds = %12
  %19 = tail call i32 @rb_io_descriptor(i64 noundef %1) #25
  %20 = getelementptr inbounds nuw i8, ptr %13, i64 24
  %21 = load i64, ptr %20, align 8, !tbaa !7
  %.not.i.i = icmp eq i64 %21, 4
  br i1 %.not.i.i, label %io_buffer_validate.exit.thread.i, label %io_buffer_validate.exit.i

io_buffer_validate.exit.i:                        ; preds = %io_buffer_validate_range.exit
  %22 = load ptr, ptr %13, align 8, !tbaa !14
  %23 = load i64, ptr %14, align 8, !tbaa !16
  %24 = tail call fastcc i32 @io_buffer_validate_slice(i64 noundef %21, ptr noundef %22, i64 noundef %23)
  %.not.i = icmp eq i32 %24, 0
  br i1 %.not.i, label %25, label %io_buffer_validate.exit.thread.i

25:                                               ; preds = %io_buffer_validate.exit.i
  %26 = load i64, ptr @rb_eIOBufferInvalidatedError, align 8, !tbaa !22
  tail call void (i64, ptr, ...) @rb_raise(i64 noundef %26, ptr noundef nonnull @.str.119) #26
  unreachable

io_buffer_validate.exit.thread.i:                 ; preds = %io_buffer_validate.exit.i, %io_buffer_validate_range.exit
  %27 = load ptr, ptr %13, align 8, !tbaa !14
  %.not8.i = icmp eq ptr %27, null
  br i1 %.not8.i, label %io_buffer_get_bytes_for_reading.exit, label %28

28:                                               ; preds = %io_buffer_validate.exit.thread.i
  %29 = load i64, ptr %14, align 8, !tbaa !16
  br label %io_buffer_get_bytes_for_reading.exit

io_buffer_get_bytes_for_reading.exit:             ; preds = %io_buffer_validate.exit.thread.i, %28
  %storemerge.i = phi i64 [ %29, %28 ], [ 0, %io_buffer_validate.exit.thread.i ]
  %30 = getelementptr i8, ptr %27, i64 %4
  %31 = sub i64 %storemerge.i, %4
  call void @llvm.lifetime.start.p0(i64 40, ptr nonnull %7) #25
  store i32 %19, ptr %7, align 8, !tbaa !71
  %32 = getelementptr inbounds nuw i8, ptr %7, i64 4
  store i32 0, ptr %32, align 4
  %33 = getelementptr inbounds nuw i8, ptr %7, i64 8
  store ptr %30, ptr %33, align 8, !tbaa !73
  %34 = getelementptr inbounds nuw i8, ptr %7, i64 16
  store i64 %31, ptr %34, align 8, !tbaa !74
  %35 = getelementptr inbounds nuw i8, ptr %7, i64 24
  store i64 %3, ptr %35, align 8, !tbaa !75
  %36 = getelementptr inbounds nuw i8, ptr %7, i64 32
  store i64 %2, ptr %36, align 8, !tbaa !76
  %37 = tail call i64 @rb_io_get_io(i64 noundef %1) #25
  %38 = tail call i64 @rb_io_taint_check(i64 noundef %37) #25
  %39 = inttoptr i64 %38 to ptr
  %40 = getelementptr inbounds nuw i8, ptr %39, i64 16
  %41 = load ptr, ptr %40, align 8, !tbaa !51
  tail call void @rb_io_check_closed(ptr noundef %41) #25
  call void @llvm.lifetime.start.p0(i64 32, ptr nonnull %6) #25
  store ptr %41, ptr %6, align 8, !tbaa !54
  %42 = getelementptr inbounds nuw i8, ptr %6, i64 8
  store ptr %13, ptr %42, align 8, !tbaa !57
  %43 = getelementptr inbounds nuw i8, ptr %6, i64 16
  store ptr @io_buffer_pwrite_internal, ptr %43, align 8, !tbaa !58
  %44 = getelementptr inbounds nuw i8, ptr %6, i64 24
  store ptr %7, ptr %44, align 8, !tbaa !59
  %45 = getelementptr inbounds nuw i8, ptr %13, i64 16
  %46 = load i32, ptr %45, align 8, !tbaa !15
  %47 = and i32 %46, 32
  %.not.i24 = icmp eq i32 %47, 0
  br i1 %.not.i24, label %io_buffer_lock.exit.i, label %48

48:                                               ; preds = %io_buffer_get_bytes_for_reading.exit
  %49 = call i64 @rb_io_blocking_region(ptr noundef %41, ptr noundef nonnull @io_buffer_pwrite_internal, ptr noundef nonnull %7) #25
  br label %io_buffer_blocking_region.exit

io_buffer_lock.exit.i:                            ; preds = %io_buffer_get_bytes_for_reading.exit
  %50 = or disjoint i32 %46, 32
  store i32 %50, ptr %45, align 8, !tbaa !15
  %51 = ptrtoint ptr %6 to i64
  %52 = call i64 @rb_ensure(ptr noundef nonnull @io_buffer_blocking_region_begin, i64 noundef %51, ptr noundef nonnull @io_buffer_blocking_region_ensure, i64 noundef %51) #25
  br label %io_buffer_blocking_region.exit

io_buffer_blocking_region.exit:                   ; preds = %48, %io_buffer_lock.exit.i
  %.0.i = phi i64 [ %49, %48 ], [ %52, %io_buffer_lock.exit.i ]
  call void @llvm.lifetime.end.p0(i64 32, ptr nonnull %6) #25
  call void @llvm.lifetime.end.p0(i64 40, ptr nonnull %7) #25
  br label %53

53:                                               ; preds = %9, %io_buffer_blocking_region.exit
  %.1 = phi i64 [ %.0.i, %io_buffer_blocking_region.exit ], [ %10, %9 ]
  ret i64 %.1
}